target datalayout = "e-m:e-p270:32:32-p271:32:32-p272:64:64-i64:64-i128:128-f80:128-n8:16:32:64-S128"
target triple = "x86_64-pc-linux-gnu"

%struct.FastPathStrongRelationLockData = type { i8, [1024 x i32] }
%struct.PROCLOCKTAG = type { ptr, ptr }
%struct.LOCK = type { %struct.LOCKTAG, i32, i32, %struct.dlist_head, %struct.dclist_head, [10 x i32], i32, [10 x i32], i32 }
%struct.LOCKTAG = type { i32, i32, i32, i16, i8, i8 }
%struct.dlist_head = type { %struct.dlist_node }
%struct.dlist_node = type { ptr, ptr }
%struct.dclist_head = type { %struct.dlist_head, i32 }
%struct.LockMethodData = type { i32, ptr, ptr, ptr }
%union.LWLockPadded = type { %struct.LWLock, [112 x i8] }
%struct.LWLock = type { i16, %struct.pg_atomic_uint32, %struct.proclist_head }
%struct.pg_atomic_uint32 = type { i32 }
%struct.proclist_head = type { i32, i32 }
%struct.PROCLOCK = type { %struct.PROCLOCKTAG, ptr, i32, i32, %struct.dlist_node, %struct.dlist_node }

@LockMethodLockHash = internal global ptr null, align 8
@LockMethodProcLockHash = internal global ptr null, align 8
@FastPathStrongRelationLocks = internal global ptr null, align 8
@.str.5 = private unnamed_addr constant [7 x i8] c"lock.c\00", align 1
@.str.7 = private unnamed_addr constant [32 x i8] c"you don't own a lock of type %s\00", align 1
@MainLWLockArray = external global ptr, align 8
@.str.15 = private unnamed_addr constant [37 x i8] c"failed to re-find shared lock object\00", align 1
@.str.16 = private unnamed_addr constant [41 x i8] c"failed to re-find shared proclock object\00", align 1
@__func__.LockRefindAndRelease = private unnamed_addr constant [21 x i8] c"LockRefindAndRelease\00", align 1

; Function Attrs: inlinehint nounwind uwtable
define internal i64 @PointerGetDatum(ptr noundef %0) #6 {
  %2 = alloca ptr, align 8
  store ptr %0, ptr %2, align 8
  %3 = load ptr, ptr %2, align 8
  %4 = ptrtoint ptr %3 to i64
  ret i64 %4
}

; Function Attrs: inlinehint nounwind uwtable
define internal i32 @tas(ptr noundef %0) #6 {
  %2 = alloca ptr, align 8
  %3 = alloca i8, align 1
  store ptr %0, ptr %2, align 8
  call void @llvm.lifetime.start.p0(i64 1, ptr %3) #9
  store i8 1, ptr %3, align 1
  %4 = load i8, ptr %3, align 1
  %5 = load ptr, ptr %2, align 8
  %6 = call i8 asm sideeffect "\09lock\09\09\09\0A\09xchgb\09$0,$1\09\0A", "=q,=*m,0,*m,~{memory},~{cc},~{dirflag},~{fpsr},~{flags}"(ptr elementtype(i8) %5, i8 %4, ptr elementtype(i8) %5) #9, !srcloc !26
  store i8 %6, ptr %3, align 1
  %7 = load i8, ptr %3, align 1
  %8 = zext i8 %7 to i32
  call void @llvm.lifetime.end.p0(i64 1, ptr %3) #9
  ret i32 %8
}

; Function Attrs: nounwind uwtable
define internal zeroext i1 @UnGrantLock(ptr noundef %0, i32 noundef %1, ptr noundef %2, ptr noundef %3) #0 {
  %5 = alloca ptr, align 8
  %6 = alloca i32, align 4
  %7 = alloca ptr, align 8
  %8 = alloca ptr, align 8
  %9 = alloca i8, align 1
  store ptr %0, ptr %5, align 8
  store i32 %1, ptr %6, align 4
  store ptr %2, ptr %7, align 8
  store ptr %3, ptr %8, align 8
  call void @llvm.lifetime.start.p0(i64 1, ptr %9) #9
  store i8 0, ptr %9, align 1
  %10 = load ptr, ptr %5, align 8
  %11 = getelementptr inbounds nuw %struct.LOCK, ptr %10, i32 0, i32 6
  %12 = load i32, ptr %11, align 8
  %13 = add i32 %12, -1
  store i32 %13, ptr %11, align 8
  %14 = load ptr, ptr %5, align 8
  %15 = getelementptr inbounds nuw %struct.LOCK, ptr %14, i32 0, i32 5
  %16 = load i32, ptr %6, align 4
  %17 = sext i32 %16 to i64
  %18 = getelementptr inbounds [10 x i32], ptr %15, i64 0, i64 %17
  %19 = load i32, ptr %18, align 4
  %20 = add i32 %19, -1
  store i32 %20, ptr %18, align 4
  %21 = load ptr, ptr %5, align 8
  %22 = getelementptr inbounds nuw %struct.LOCK, ptr %21, i32 0, i32 8
  %23 = load i32, ptr %22, align 4
  %24 = add i32 %23, -1
  store i32 %24, ptr %22, align 4
  %25 = load ptr, ptr %5, align 8
  %26 = getelementptr inbounds nuw %struct.LOCK, ptr %25, i32 0, i32 7
  %27 = load i32, ptr %6, align 4
  %28 = sext i32 %27 to i64
  %29 = getelementptr inbounds [10 x i32], ptr %26, i64 0, i64 %28
  %30 = load i32, ptr %29, align 4
  %31 = add i32 %30, -1
  store i32 %31, ptr %29, align 4
  %32 = load ptr, ptr %5, align 8
  %33 = getelementptr inbounds nuw %struct.LOCK, ptr %32, i32 0, i32 7
  %34 = load i32, ptr %6, align 4
  %35 = sext i32 %34 to i64
  %36 = getelementptr inbounds [10 x i32], ptr %33, i64 0, i64 %35
  %37 = load i32, ptr %36, align 4
  %38 = icmp eq i32 %37, 0
  br i1 %38, label %39, label %47

39:                                               ; preds = %4
  %40 = load i32, ptr %6, align 4
  %41 = shl i32 1, %40
  %42 = xor i32 %41, -1
  %43 = load ptr, ptr %5, align 8
  %44 = getelementptr inbounds nuw %struct.LOCK, ptr %43, i32 0, i32 1
  %45 = load i32, ptr %44, align 8
  %46 = and i32 %45, %42
  store i32 %46, ptr %44, align 8
  br label %47

47:                                               ; preds = %39, %4
  %48 = load ptr, ptr %8, align 8
  %49 = getelementptr inbounds nuw %struct.LockMethodData, ptr %48, i32 0, i32 1
  %50 = load ptr, ptr %49, align 8
  %51 = load i32, ptr %6, align 4
  %52 = sext i32 %51 to i64
  %53 = getelementptr inbounds i32, ptr %50, i64 %52
  %54 = load i32, ptr %53, align 4
  %55 = load ptr, ptr %5, align 8
  %56 = getelementptr inbounds nuw %struct.LOCK, ptr %55, i32 0, i32 2
  %57 = load i32, ptr %56, align 4
  %58 = and i32 %54, %57
  %59 = icmp ne i32 %58, 0
  br i1 %59, label %60, label %61

60:                                               ; preds = %47
  store i8 1, ptr %9, align 1
  br label %61

61:                                               ; preds = %60, %47
  %62 = load i32, ptr %6, align 4
  %63 = shl i32 1, %62
  %64 = xor i32 %63, -1
  %65 = load ptr, ptr %7, align 8
  %66 = getelementptr inbounds nuw %struct.PROCLOCK, ptr %65, i32 0, i32 2
  %67 = load i32, ptr %66, align 8
  %68 = and i32 %67, %64
  store i32 %68, ptr %66, align 8
  %69 = load i8, ptr %9, align 1, !range !4, !noundef !5
  %70 = trunc i8 %69 to i1
  call void @llvm.lifetime.end.p0(i64 1, ptr %9) #9
  ret i1 %70
}

; Function Attrs: inlinehint nounwind uwtable
define internal i32 @ProcLockHashCode(ptr noundef %0, i32 noundef %1) #6 {
  %3 = alloca ptr, align 8
  %4 = alloca i32, align 4
  %5 = alloca i32, align 4
  %6 = alloca i64, align 8
  store ptr %0, ptr %3, align 8
  store i32 %1, ptr %4, align 4
  call void @llvm.lifetime.start.p0(i64 4, ptr %5) #9
  %7 = load i32, ptr %4, align 4
  store i32 %7, ptr %5, align 4
  call void @llvm.lifetime.start.p0(i64 8, ptr %6) #9
  %8 = load ptr, ptr %3, align 8
  %9 = getelementptr inbounds nuw %struct.PROCLOCKTAG, ptr %8, i32 0, i32 1
  %10 = load ptr, ptr %9, align 8
  %11 = call i64 @PointerGetDatum(ptr noundef %10)
  store i64 %11, ptr %6, align 8
  %12 = load i64, ptr %6, align 8
  %13 = trunc i64 %12 to i32
  %14 = shl i32 %13, 4
  %15 = load i32, ptr %5, align 4
  %16 = xor i32 %15, %14
  store i32 %16, ptr %5, align 4
  %17 = load i32, ptr %5, align 4
  call void @llvm.lifetime.end.p0(i64 8, ptr %6) #9
  call void @llvm.lifetime.end.p0(i64 4, ptr %5) #9
  ret i32 %17
}

; Function Attrs: nounwind uwtable
define dso_local i32 @LockTagHashCode(ptr noundef %0) #0 {
  %2 = alloca ptr, align 8
  store ptr %0, ptr %2, align 8
  %3 = load ptr, ptr @LockMethodLockHash, align 8
  %4 = load ptr, ptr %2, align 8
  %5 = call i32 @get_hash_value(ptr noundef %3, ptr noundef %4)
  ret i32 %5
}

; Function Attrs: nounwind uwtable
define internal void @LockRefindAndRelease(ptr noundef %0, ptr noundef %1, ptr noundef %2, i32 noundef %3, i1 noundef zeroext %4) #0 {
  %6 = alloca ptr, align 8
  %7 = alloca ptr, align 8
  %8 = alloca ptr, align 8
  %9 = alloca i32, align 4
  %10 = alloca i8, align 1
  %11 = alloca ptr, align 8
  %12 = alloca ptr, align 8
  %13 = alloca %struct.PROCLOCKTAG, align 8
  %14 = alloca i32, align 4
  %15 = alloca i32, align 4
  %16 = alloca ptr, align 8
  %17 = alloca i8, align 1
  %18 = alloca i32, align 4
  %19 = alloca i32, align 4
  store ptr %0, ptr %6, align 8
  store ptr %1, ptr %7, align 8
  store ptr %2, ptr %8, align 8
  store i32 %3, ptr %9, align 4
  %20 = zext i1 %4 to i8
  store i8 %20, ptr %10, align 1
  call void @llvm.lifetime.start.p0(i64 8, ptr %11) #9
  call void @llvm.lifetime.start.p0(i64 8, ptr %12) #9
  call void @llvm.lifetime.start.p0(i64 16, ptr %13) #9
  call void @llvm.lifetime.start.p0(i64 4, ptr %14) #9
  call void @llvm.lifetime.start.p0(i64 4, ptr %15) #9
  call void @llvm.lifetime.start.p0(i64 8, ptr %16) #9
  call void @llvm.lifetime.start.p0(i64 1, ptr %17) #9
  %21 = load ptr, ptr %8, align 8
  %22 = call i32 @LockTagHashCode(ptr noundef %21)
  store i32 %22, ptr %14, align 4
  %23 = load ptr, ptr @MainLWLockArray, align 8
  %24 = load i32, ptr %14, align 4
  %25 = urem i32 %24, 16
  %26 = add i32 181, %25
  %27 = zext i32 %26 to i64
  %28 = getelementptr inbounds nuw %union.LWLockPadded, ptr %23, i64 %27
  store ptr %28, ptr %16, align 8
  %29 = load ptr, ptr %16, align 8
  %30 = call zeroext i1 @LWLockAcquire(ptr noundef %29, i32 noundef 0)
  %31 = load ptr, ptr @LockMethodLockHash, align 8
  %32 = load ptr, ptr %8, align 8
  %33 = load i32, ptr %14, align 4
  %34 = call ptr @hash_search_with_hash_value(ptr noundef %31, ptr noundef %32, i32 noundef %33, i32 noundef 0, ptr noundef null)
  store ptr %34, ptr %11, align 8
  %35 = load ptr, ptr %11, align 8
  %36 = icmp ne ptr %35, null
  br i1 %36, label %48, label %37

37:                                               ; preds = %5
  br label %38

38:                                               ; preds = %37
  br i1 true, label %39, label %41

39:                                               ; preds = %38
  %40 = call zeroext i1 @errstart_cold(i32 noundef 23, ptr noundef null) #10
  br i1 %40, label %43, label %45

41:                                               ; preds = %38
  %42 = call zeroext i1 @errstart(i32 noundef 23, ptr noundef null)
  br i1 %42, label %43, label %45

43:                                               ; preds = %41, %39
  %44 = call i32 (ptr, ...) @errmsg_internal(ptr noundef @.str.15)
  call void @errfinish(ptr noundef @.str.5, i32 noundef 3217, ptr noundef @__func__.LockRefindAndRelease)
  br label %45

45:                                               ; preds = %43, %41, %39
  unreachable

46:                                               ; No predecessors!
  br label %47

47:                                               ; preds = %46
  br label %48

48:                                               ; preds = %47, %5
  %49 = load ptr, ptr %11, align 8
  %50 = getelementptr inbounds nuw %struct.PROCLOCKTAG, ptr %13, i32 0, i32 0
  store ptr %49, ptr %50, align 8
  %51 = load ptr, ptr %7, align 8
  %52 = getelementptr inbounds nuw %struct.PROCLOCKTAG, ptr %13, i32 0, i32 1
  store ptr %51, ptr %52, align 8
  %53 = load i32, ptr %14, align 4
  %54 = call i32 @ProcLockHashCode(ptr noundef %13, i32 noundef %53)
  store i32 %54, ptr %15, align 4
  %55 = load ptr, ptr @LockMethodProcLockHash, align 8
  %56 = load i32, ptr %15, align 4
  %57 = call ptr @hash_search_with_hash_value(ptr noundef %55, ptr noundef %13, i32 noundef %56, i32 noundef 0, ptr noundef null)
  store ptr %57, ptr %12, align 8
  %58 = load ptr, ptr %12, align 8
  %59 = icmp ne ptr %58, null
  br i1 %59, label %71, label %60

60:                                               ; preds = %48
  br label %61

61:                                               ; preds = %60
  br i1 true, label %62, label %64

62:                                               ; preds = %61
  %63 = call zeroext i1 @errstart_cold(i32 noundef 23, ptr noundef null) #10
  br i1 %63, label %66, label %68

64:                                               ; preds = %61
  %65 = call zeroext i1 @errstart(i32 noundef 23, ptr noundef null)
  br i1 %65, label %66, label %68

66:                                               ; preds = %64, %62
  %67 = call i32 (ptr, ...) @errmsg_internal(ptr noundef @.str.16)
  call void @errfinish(ptr noundef @.str.5, i32 noundef 3233, ptr noundef @__func__.LockRefindAndRelease)
  br label %68

68:                                               ; preds = %66, %64, %62
  unreachable

69:                                               ; No predecessors!
  br label %70

70:                                               ; preds = %69
  br label %71

71:                                               ; preds = %70, %48
  %72 = load ptr, ptr %12, align 8
  %73 = getelementptr inbounds nuw %struct.PROCLOCK, ptr %72, i32 0, i32 2
  %74 = load i32, ptr %73, align 8
  %75 = load i32, ptr %9, align 4
  %76 = shl i32 1, %75
  %77 = and i32 %74, %76
  %78 = icmp ne i32 %77, 0
  br i1 %78, label %98, label %79

79:                                               ; preds = %71
  %80 = load ptr, ptr %16, align 8
  call void @LWLockRelease(ptr noundef %80)
  br label %81

81:                                               ; preds = %79
  br i1 false, label %82, label %84

82:                                               ; preds = %81
  %83 = call zeroext i1 @errstart_cold(i32 noundef 19, ptr noundef null) #10
  br i1 %83, label %86, label %95

84:                                               ; preds = %81
  %85 = call zeroext i1 @errstart(i32 noundef 19, ptr noundef null)
  br i1 %85, label %86, label %95

86:                                               ; preds = %84, %82
  %87 = load ptr, ptr %6, align 8
  %88 = getelementptr inbounds nuw %struct.LockMethodData, ptr %87, i32 0, i32 2
  %89 = load ptr, ptr %88, align 8
  %90 = load i32, ptr %9, align 4
  %91 = sext i32 %90 to i64
  %92 = getelementptr inbounds ptr, ptr %89, i64 %91
  %93 = load ptr, ptr %92, align 8
  %94 = call i32 (ptr, ...) @errmsg_internal(ptr noundef @.str.7, ptr noundef %93)
  call void @errfinish(ptr noundef @.str.5, i32 noundef 3244, ptr noundef @__func__.LockRefindAndRelease)
  br label %95

95:                                               ; preds = %86, %84, %82
  br label %96

96:                                               ; preds = %95
  br label %97

97:                                               ; preds = %96
  store i32 1, ptr %18, align 4
  br label %160

98:                                               ; preds = %71
  %99 = load ptr, ptr %11, align 8
  %100 = load i32, ptr %9, align 4
  %101 = load ptr, ptr %12, align 8
  %102 = load ptr, ptr %6, align 8
  %103 = call zeroext i1 @UnGrantLock(ptr noundef %99, i32 noundef %100, ptr noundef %101, ptr noundef %102)
  %104 = zext i1 %103 to i8
  store i8 %104, ptr %17, align 1
  %105 = load ptr, ptr %11, align 8
  %106 = load ptr, ptr %12, align 8
  %107 = load ptr, ptr %6, align 8
  %108 = load i32, ptr %14, align 4
  %109 = load i8, ptr %17, align 1, !range !4, !noundef !5
  %110 = trunc i8 %109 to i1
  call void @CleanUpLock(ptr noundef %105, ptr noundef %106, ptr noundef %107, i32 noundef %108, i1 noundef zeroext %110)
  %111 = load ptr, ptr %16, align 8
  call void @LWLockRelease(ptr noundef %111)
  %112 = load i8, ptr %10, align 1, !range !4, !noundef !5
  %113 = trunc i8 %112 to i1
  br i1 %113, label %114, label %159

114:                                              ; preds = %98
  %115 = load ptr, ptr %8, align 8
  %116 = getelementptr inbounds nuw %struct.LOCKTAG, ptr %115, i32 0, i32 5
  %117 = load i8, ptr %116, align 1
  %118 = zext i8 %117 to i32
  %119 = icmp eq i32 %118, 1
  br i1 %119, label %120, label %159

120:                                              ; preds = %114
  %121 = load ptr, ptr %8, align 8
  %122 = getelementptr inbounds nuw %struct.LOCKTAG, ptr %121, i32 0, i32 4
  %123 = load i8, ptr %122, align 2
  %124 = zext i8 %123 to i32
  %125 = icmp eq i32 %124, 0
  br i1 %125, label %126, label %159

126:                                              ; preds = %120
  %127 = load ptr, ptr %8, align 8
  %128 = getelementptr inbounds nuw %struct.LOCKTAG, ptr %127, i32 0, i32 0
  %129 = load i32, ptr %128, align 4
  %130 = icmp ne i32 %129, 0
  br i1 %130, label %131, label %159

131:                                              ; preds = %126
  %132 = load i32, ptr %9, align 4
  %133 = icmp sgt i32 %132, 4
  br i1 %133, label %134, label %159

134:                                              ; preds = %131
  call void @llvm.lifetime.start.p0(i64 4, ptr %19) #9
  %135 = load i32, ptr %14, align 4
  %136 = urem i32 %135, 1024
  store i32 %136, ptr %19, align 4
  %137 = load ptr, ptr @FastPathStrongRelationLocks, align 8
  %138 = getelementptr inbounds nuw %struct.FastPathStrongRelationLockData, ptr %137, i32 0, i32 0
  %139 = call i32 @tas(ptr noundef %138)
  %140 = icmp ne i32 %139, 0
  br i1 %140, label %141, label %145

141:                                              ; preds = %134
  %142 = load ptr, ptr @FastPathStrongRelationLocks, align 8
  %143 = getelementptr inbounds nuw %struct.FastPathStrongRelationLockData, ptr %142, i32 0, i32 0
  %144 = call i32 @s_lock(ptr noundef %143, ptr noundef @.str.5, i32 noundef 3267, ptr noundef @__func__.LockRefindAndRelease)
  br label %146

145:                                              ; preds = %134
  br label %146

146:                                              ; preds = %145, %141
  %147 = load ptr, ptr @FastPathStrongRelationLocks, align 8
  %148 = getelementptr inbounds nuw %struct.FastPathStrongRelationLockData, ptr %147, i32 0, i32 1
  %149 = load i32, ptr %19, align 4
  %150 = zext i32 %149 to i64
  %151 = getelementptr inbounds nuw [1024 x i32], ptr %148, i64 0, i64 %150
  %152 = load volatile i32, ptr %151, align 4
  %153 = add i32 %152, -1
  store volatile i32 %153, ptr %151, align 4
  br label %154

154:                                              ; preds = %146
  call void asm sideeffect "", "~{memory},~{dirflag},~{fpsr},~{flags}"() #9, !srcloc !35
  %155 = load ptr, ptr @FastPathStrongRelationLocks, align 8
  %156 = getelementptr inbounds nuw %struct.FastPathStrongRelationLockData, ptr %155, i32 0, i32 0
  store volatile i8 0, ptr %156, align 4
  br label %157

157:                                              ; preds = %154
  br label %158

158:                                              ; preds = %157
  call void @llvm.lifetime.end.p0(i64 4, ptr %19) #9
  br label %159

159:                                              ; preds = %158, %131, %126, %120, %114, %98
  store i32 0, ptr %18, align 4
  br label %160

160:                                              ; preds = %159, %97
  call void @llvm.lifetime.end.p0(i64 1, ptr %17) #9
  call void @llvm.lifetime.end.p0(i64 8, ptr %16) #9
  call void @llvm.lifetime.end.p0(i64 4, ptr %15) #9
  call void @llvm.lifetime.end.p0(i64 4, ptr %14) #9
  call void @llvm.lifetime.end.p0(i64 16, ptr %13) #9
  call void @llvm.lifetime.end.p0(i64 8, ptr %12) #9
  call void @llvm.lifetime.end.p0(i64 8, ptr %11) #9
  %161 = load i32, ptr %18, align 4
  switch i32 %161, label %163 [
    i32 0, label %162
    i32 1, label %162
  ]

162:                                              ; preds = %160, %160
  ret void

163:                                              ; preds = %160
  unreachable
}