; Function Attrs: nounwind uwtable
define internal fastcc void @LockRefindAndRelease(ptr noundef %0, ptr noundef %1, ptr noundef %2, i32 noundef %3, i1 noundef zeroext %4) unnamed_addr #0 {
  %6 = alloca %struct.PROCLOCKTAG, align 8
  call void @llvm.lifetime.start.p0(i64 16, ptr nonnull %6) #17
  %7 = load ptr, ptr @LockMethodLockHash, align 8
  %8 = tail call i32 @get_hash_value(ptr noundef %7, ptr noundef %2) #17
  %9 = load ptr, ptr @MainLWLockArray, align 8
  %10 = and i32 %8, 15
  %11 = zext nneg i32 %10 to i64
  %12 = getelementptr inbounds nuw %union.LWLockPadded, ptr %9, i64 %11
  %13 = getelementptr inbounds nuw i8, ptr %12, i64 23168
  %14 = tail call zeroext i1 @LWLockAcquire(ptr noundef nonnull %13, i32 noundef 0) #17
  %15 = load ptr, ptr @LockMethodLockHash, align 8
  %16 = tail call ptr @hash_search_with_hash_value(ptr noundef %15, ptr noundef %2, i32 noundef %8, i32 noundef 0, ptr noundef null) #17
  %.not = icmp eq ptr %16, null
  br i1 %.not, label %17, label %20

17:                                               ; preds = %5
  %18 = tail call zeroext i1 @errstart_cold(i32 noundef 23, ptr noundef null) #18
  tail call void @llvm.assume(i1 %18)
  %19 = tail call i32 (ptr, ...) @errmsg_internal(ptr noundef nonnull @.str.15) #17
  tail call void @errfinish(ptr noundef nonnull @.str.5, i32 noundef 3217, ptr noundef nonnull @__func__.LockRefindAndRelease) #17
  unreachable

20:                                               ; preds = %5
  store ptr %16, ptr %6, align 8
  %21 = getelementptr inbounds nuw i8, ptr %6, i64 8
  store ptr %1, ptr %21, align 8
  %22 = ptrtoint ptr %1 to i64
  %23 = trunc i64 %22 to i32
  %24 = shl i32 %23, 4
  %25 = xor i32 %8, %24
  %26 = load ptr, ptr @LockMethodProcLockHash, align 8
  %27 = call ptr @hash_search_with_hash_value(ptr noundef %26, ptr noundef nonnull %6, i32 noundef %25, i32 noundef 0, ptr noundef null) #17
  %.not34 = icmp eq ptr %27, null
  br i1 %.not34, label %28, label %31

28:                                               ; preds = %20
  %29 = call zeroext i1 @errstart_cold(i32 noundef 23, ptr noundef null) #18
  call void @llvm.assume(i1 %29)
  %30 = call i32 (ptr, ...) @errmsg_internal(ptr noundef nonnull @.str.16) #17
  call void @errfinish(ptr noundef nonnull @.str.5, i32 noundef 3233, ptr noundef nonnull @__func__.LockRefindAndRelease) #17
  unreachable

31:                                               ; preds = %20
  %32 = getelementptr inbounds nuw i8, ptr %27, i64 24
  %33 = load i32, ptr %32, align 8
  %34 = shl nuw i32 1, %3
  %35 = and i32 %33, %34
  %.not35 = icmp eq i32 %35, 0
  br i1 %.not35, label %36, label %45

36:                                               ; preds = %31
  call void @LWLockRelease(ptr noundef nonnull %13) #17
  %37 = call zeroext i1 @errstart(i32 noundef 19, ptr noundef null) #17
  br i1 %37, label %38, label %103

38:                                               ; preds = %36
  %39 = getelementptr inbounds nuw i8, ptr %0, i64 16
  %40 = load ptr, ptr %39, align 8
  %41 = sext i32 %3 to i64
  %42 = getelementptr inbounds ptr, ptr %40, i64 %41
  %43 = load ptr, ptr %42, align 8
  %44 = call i32 (ptr, ...) @errmsg_internal(ptr noundef nonnull @.str.7, ptr noundef %43) #17
  call void @errfinish(ptr noundef nonnull @.str.5, i32 noundef 3244, ptr noundef nonnull @__func__.LockRefindAndRelease) #17
  br label %103

45:                                               ; preds = %31
  %46 = getelementptr inbounds nuw i8, ptr %16, i64 104
  %47 = load i32, ptr %46, align 8
  %48 = add i32 %47, -1
  store i32 %48, ptr %46, align 8
  %49 = getelementptr inbounds nuw i8, ptr %16, i64 64
  %50 = sext i32 %3 to i64
  %51 = getelementptr inbounds [10 x i32], ptr %49, i64 0, i64 %50
  %52 = load i32, ptr %51, align 4
  %53 = add i32 %52, -1
  store i32 %53, ptr %51, align 4
  %54 = getelementptr inbounds nuw i8, ptr %16, i64 148
  %55 = load i32, ptr %54, align 4
  %56 = add i32 %55, -1
  store i32 %56, ptr %54, align 4
  %57 = getelementptr inbounds nuw i8, ptr %16, i64 108
  %58 = getelementptr inbounds [10 x i32], ptr %57, i64 0, i64 %50
  %59 = load i32, ptr %58, align 4
  %60 = add i32 %59, -1
  store i32 %60, ptr %58, align 4
  %61 = icmp eq i32 %60, 0
  %62 = xor i32 %34, -1
  br i1 %61, label %63, label %UnGrantLock.exit

63:                                               ; preds = %45
  %64 = getelementptr inbounds nuw i8, ptr %16, i64 16
  %65 = load i32, ptr %64, align 8
  %66 = and i32 %65, %62
  store i32 %66, ptr %64, align 8
  br label %UnGrantLock.exit

UnGrantLock.exit:                                 ; preds = %45, %63
  %67 = getelementptr inbounds nuw i8, ptr %0, i64 8
  %68 = load ptr, ptr %67, align 8
  %69 = getelementptr inbounds i32, ptr %68, i64 %50
  %70 = load i32, ptr %69, align 4
  %71 = getelementptr inbounds nuw i8, ptr %16, i64 20
  %72 = load i32, ptr %71, align 4
  %73 = and i32 %72, %70
  %.not.i = icmp ne i32 %73, 0
  %74 = load i32, ptr %32, align 8
  %75 = and i32 %74, %62
  store i32 %75, ptr %32, align 8
  call fastcc void @CleanUpLock(ptr noundef nonnull %16, ptr noundef nonnull %27, ptr noundef %0, i32 noundef %8, i1 noundef zeroext %.not.i)
  call void @LWLockRelease(ptr noundef nonnull %13) #17
  br i1 %4, label %76, label %103

76:                                               ; preds = %UnGrantLock.exit
  %77 = getelementptr inbounds nuw i8, ptr %2, i64 15
  %78 = load i8, ptr %77, align 1
  %79 = icmp eq i8 %78, 1
  br i1 %79, label %80, label %103

80:                                               ; preds = %76
  %81 = getelementptr inbounds nuw i8, ptr %2, i64 14
  %82 = load i8, ptr %81, align 2
  %83 = icmp eq i8 %82, 0
  br i1 %83, label %84, label %103

84:                                               ; preds = %80
  %85 = load i32, ptr %2, align 4
  %86 = icmp ne i32 %85, 0
  %87 = icmp sgt i32 %3, 4
  %or.cond = and i1 %87, %86
  br i1 %or.cond, label %88, label %103

88:                                               ; preds = %84
  %89 = and i32 %8, 1023
  %90 = load ptr, ptr @FastPathStrongRelationLocks, align 8
  %91 = call i8 asm sideeffect "\09lock\09\09\09\0A\09xchgb\09$0,$1\09\0A", "=q,=*m,0,*m,~{memory},~{cc},~{dirflag},~{fpsr},~{flags}"(ptr elementtype(i8) %90, i8 1, ptr elementtype(i8) %90) #17, !srcloc !10
  %.not36 = icmp eq i8 %91, 0
  br i1 %.not36, label %95, label %92

92:                                               ; preds = %88
  %93 = load ptr, ptr @FastPathStrongRelationLocks, align 8
  %94 = call i32 @s_lock(ptr noundef %93, ptr noundef nonnull @.str.5, i32 noundef 3267, ptr noundef nonnull @__func__.LockRefindAndRelease) #17
  br label %95

95:                                               ; preds = %88, %92
  %96 = load ptr, ptr @FastPathStrongRelationLocks, align 8
  %97 = getelementptr inbounds nuw i8, ptr %96, i64 4
  %98 = zext nneg i32 %89 to i64
  %99 = getelementptr inbounds nuw [1024 x i32], ptr %97, i64 0, i64 %98
  %100 = load volatile i32, ptr %99, align 4
  %101 = add i32 %100, -1
  store volatile i32 %101, ptr %99, align 4
  call void asm sideeffect "", "~{memory},~{dirflag},~{fpsr},~{flags}"() #17, !srcloc !29
  %102 = load ptr, ptr @FastPathStrongRelationLocks, align 8
  store volatile i8 0, ptr %102, align 4
  br label %103

103:                                              ; preds = %UnGrantLock.exit, %76, %80, %84, %95, %36, %38
  call void @llvm.lifetime.end.p0(i64 16, ptr nonnull %6) #17
  ret void
}